target datalayout = "e-m:e-p270:32:32-p271:32:32-p272:64:64-i64:64-i128:128-f80:128-n8:16:32:64-S128"
target triple = "x86_64-pc-linux-gnu"

%struct.mbedtls_ssl_config = type { i32, i32, i8, i8, i8, i8, i8, i8, i8, i8, i8, i8, i16, i8, i8, i8, ptr, i32, ptr, ptr, ptr, ptr, ptr, ptr, ptr, ptr, ptr, ptr, ptr, ptr, ptr, ptr, ptr, ptr, ptr, ptr, ptr, i64, ptr, ptr, ptr, ptr, ptr, ptr, ptr, ptr, %struct.mbedtls_mpi, %struct.mbedtls_mpi, ptr, i64, ptr, i64, ptr, i32, i32, i32, i32, [8 x i8], i32, i32, %union.mbedtls_ssl_user_data_t, ptr, ptr }
%struct.mbedtls_mpi = type { ptr, i16, i16 }
%union.mbedtls_ssl_user_data_t = type { i64 }
%struct.mbedtls_ssl_context = type { ptr, i32, i32, i32, i32, i32, ptr, ptr, ptr, ptr, ptr, ptr, ptr, ptr, ptr, ptr, ptr, ptr, ptr, ptr, ptr, ptr, ptr, ptr, ptr, ptr, ptr, ptr, ptr, ptr, ptr, ptr, ptr, i32, i64, i64, i16, i64, i64, i64, i64, i32, i32, i8, i8, i32, i8, ptr, ptr, ptr, ptr, ptr, ptr, ptr, i32, i64, i64, [8 x i8], i16, ptr, ptr, ptr, i64, i32, i64, [12 x i8], [12 x i8], [32 x i8], i8, i8, ptr, ptr, %union.mbedtls_ssl_user_data_t }
%struct.mbedtls_ssl_session = type { i8, i8, i8, i32, i64, i32, i64, [32 x i8], [48 x i8], ptr, i32, ptr, i64, i32, i64, i32, i8, i8, [48 x i8], ptr, i64, i32, %struct.mbedtls_ssl_tls13_application_secrets }
%struct.mbedtls_ssl_tls13_application_secrets = type { [64 x i8], [64 x i8], [64 x i8], [64 x i8] }

; Function Attrs: nounwind uwtable
define internal i32 @ssl_mfl_code_to_length(i32 noundef %0) #0 {
  %2 = alloca i32, align 4
  %3 = alloca i32, align 4
  store i32 %0, ptr %3, align 4, !tbaa !10
  %4 = load i32, ptr %3, align 4, !tbaa !10
  switch i32 %4, label %10 [
    i32 0, label %5
    i32 1, label %6
    i32 2, label %7
    i32 3, label %8
    i32 4, label %9
  ]

5:                                                ; preds = %1
  store i32 16384, ptr %2, align 4
  br label %11

6:                                                ; preds = %1
  store i32 512, ptr %2, align 4
  br label %11

7:                                                ; preds = %1
  store i32 1024, ptr %2, align 4
  br label %11

8:                                                ; preds = %1
  store i32 2048, ptr %2, align 4
  br label %11

9:                                                ; preds = %1
  store i32 4096, ptr %2, align 4
  br label %11

10:                                               ; preds = %1
  store i32 16384, ptr %2, align 4
  br label %11

11:                                               ; preds = %10, %9, %8, %7, %6, %5
  %12 = load i32, ptr %2, align 4
  ret i32 %12
}

; Function Attrs: nounwind uwtable
define hidden i64 @mbedtls_ssl_get_input_max_frag_len(ptr noundef %0) #0 {
  %2 = alloca i64, align 8
  %3 = alloca ptr, align 8
  %4 = alloca i64, align 8
  %5 = alloca i64, align 8
  %6 = alloca i32, align 4
  store ptr %0, ptr %3, align 8, !tbaa !27
  call void @llvm.lifetime.start.p0(i64 8, ptr %4) #11
  store i64 16384, ptr %4, align 8, !tbaa !8
  call void @llvm.lifetime.start.p0(i64 8, ptr %5) #11
  %7 = load ptr, ptr %3, align 8, !tbaa !27
  %8 = getelementptr inbounds nuw %struct.mbedtls_ssl_context, ptr %7, i32 0, i32 0
  %9 = load ptr, ptr %8, align 8, !tbaa !30
  %10 = getelementptr inbounds nuw %struct.mbedtls_ssl_config, ptr %9, i32 0, i32 2
  %11 = load i8, ptr %10, align 8, !tbaa !110
  %12 = zext i8 %11 to i32
  %13 = icmp eq i32 %12, 0
  br i1 %13, label %14, label %28

14:                                               ; preds = %1
  %15 = load ptr, ptr %3, align 8, !tbaa !27
  %16 = getelementptr inbounds nuw %struct.mbedtls_ssl_context, ptr %15, i32 0, i32 1
  %17 = load i32, ptr %16, align 8, !tbaa !49
  %18 = icmp sge i32 %17, 6
  br i1 %18, label %19, label %28

19:                                               ; preds = %14
  %20 = load ptr, ptr %3, align 8, !tbaa !27
  %21 = getelementptr inbounds nuw %struct.mbedtls_ssl_context, ptr %20, i32 0, i32 0
  %22 = load ptr, ptr %21, align 8, !tbaa !30
  %23 = getelementptr inbounds nuw %struct.mbedtls_ssl_config, ptr %22, i32 0, i32 6
  %24 = load i8, ptr %23, align 4, !tbaa !233
  %25 = zext i8 %24 to i32
  %26 = call i32 @ssl_mfl_code_to_length(i32 noundef %25)
  %27 = zext i32 %26 to i64
  store i64 %27, ptr %2, align 8
  store i32 1, ptr %6, align 4
  br label %70

28:                                               ; preds = %14, %1
  %29 = load ptr, ptr %3, align 8, !tbaa !27
  %30 = getelementptr inbounds nuw %struct.mbedtls_ssl_context, ptr %29, i32 0, i32 13
  %31 = load ptr, ptr %30, align 8, !tbaa !146
  %32 = icmp ne ptr %31, null
  br i1 %32, label %33, label %48

33:                                               ; preds = %28
  %34 = load ptr, ptr %3, align 8, !tbaa !27
  %35 = getelementptr inbounds nuw %struct.mbedtls_ssl_context, ptr %34, i32 0, i32 13
  %36 = load ptr, ptr %35, align 8, !tbaa !146
  %37 = getelementptr inbounds nuw %struct.mbedtls_ssl_session, ptr %36, i32 0, i32 0
  %38 = load i8, ptr %37, align 8, !tbaa !244
  %39 = zext i8 %38 to i32
  %40 = call i32 @ssl_mfl_code_to_length(i32 noundef %39)
  %41 = zext i32 %40 to i64
  store i64 %41, ptr %5, align 8, !tbaa !8
  %42 = load i64, ptr %5, align 8, !tbaa !8
  %43 = load i64, ptr %4, align 8, !tbaa !8
  %44 = icmp ult i64 %42, %43
  br i1 %44, label %45, label %47

45:                                               ; preds = %33
  %46 = load i64, ptr %5, align 8, !tbaa !8
  store i64 %46, ptr %4, align 8, !tbaa !8
  br label %47

47:                                               ; preds = %45, %33
  br label %48

48:                                               ; preds = %47, %28
  %49 = load ptr, ptr %3, align 8, !tbaa !27
  %50 = getelementptr inbounds nuw %struct.mbedtls_ssl_context, ptr %49, i32 0, i32 15
  %51 = load ptr, ptr %50, align 8, !tbaa !105
  %52 = icmp ne ptr %51, null
  br i1 %52, label %53, label %68

53:                                               ; preds = %48
  %54 = load ptr, ptr %3, align 8, !tbaa !27
  %55 = getelementptr inbounds nuw %struct.mbedtls_ssl_context, ptr %54, i32 0, i32 15
  %56 = load ptr, ptr %55, align 8, !tbaa !105
  %57 = getelementptr inbounds nuw %struct.mbedtls_ssl_session, ptr %56, i32 0, i32 0
  %58 = load i8, ptr %57, align 8, !tbaa !244
  %59 = zext i8 %58 to i32
  %60 = call i32 @ssl_mfl_code_to_length(i32 noundef %59)
  %61 = zext i32 %60 to i64
  store i64 %61, ptr %5, align 8, !tbaa !8
  %62 = load i64, ptr %5, align 8, !tbaa !8
  %63 = load i64, ptr %4, align 8, !tbaa !8
  %64 = icmp ult i64 %62, %63
  br i1 %64, label %65, label %67

65:                                               ; preds = %53
  %66 = load i64, ptr %5, align 8, !tbaa !8
  store i64 %66, ptr %4, align 8, !tbaa !8
  br label %67

67:                                               ; preds = %65, %53
  br label %68

68:                                               ; preds = %67, %48
  %69 = load i64, ptr %4, align 8, !tbaa !8
  store i64 %69, ptr %2, align 8
  store i32 1, ptr %6, align 4
  br label %70

70:                                               ; preds = %68, %19
  call void @llvm.lifetime.end.p0(i64 8, ptr %5) #11
  call void @llvm.lifetime.end.p0(i64 8, ptr %4) #11
  %71 = load i64, ptr %2, align 8
  ret i64 %71
}