; Function Attrs: mustprogress nofree norecurse nosync nounwind willreturn memory(read, inaccessiblemem: none) uwtable
define hidden range(i64 512, 16385) i64 @mbedtls_ssl_get_input_max_frag_len(ptr noundef readonly captures(none) %0) local_unnamed_addr #13 {
  %2 = load ptr, ptr %0, align 8, !tbaa !23
  %3 = getelementptr inbounds nuw i8, ptr %2, i64 8
  %4 = load i8, ptr %3, align 8, !tbaa !94
  %5 = icmp eq i8 %4, 0
  br i1 %5, label %6, label %14

6:                                                ; preds = %1
  %7 = getelementptr inbounds nuw i8, ptr %0, i64 8
  %8 = load i32, ptr %7, align 8, !tbaa !34
  %9 = icmp sgt i32 %8, 5
  br i1 %9, label %10, label %14

10:                                               ; preds = %6
  %11 = getelementptr inbounds nuw i8, ptr %2, i64 12
  %12 = load i8, ptr %11, align 4, !tbaa !198
  %switch.tableidx = add i8 %12, -1
  %13 = icmp ult i8 %switch.tableidx, 4
  br i1 %13, label %switch.lookup, label %ssl_mfl_code_to_length.exit

14:                                               ; preds = %6, %1
  %15 = getelementptr inbounds nuw i8, ptr %0, i64 88
  %16 = load ptr, ptr %15, align 8, !tbaa !209
  %.not = icmp eq ptr %16, null
  br i1 %.not, label %ssl_mfl_code_to_length.exit22, label %17

17:                                               ; preds = %14
  %18 = load i8, ptr %16, align 8, !tbaa !210
  %switch.tableidx28 = add i8 %18, -1
  %19 = icmp ult i8 %switch.tableidx28, 4
  br i1 %19, label %switch.lookup27, label %ssl_mfl_code_to_length.exit22

switch.lookup27:                                  ; preds = %17
  %20 = zext nneg i8 %switch.tableidx28 to i64
  %switch.gep29 = getelementptr inbounds nuw [4 x i64], ptr @switch.table.mbedtls_ssl_get_max_in_record_payload.31, i64 0, i64 %20
  %switch.load30 = load i64, ptr %switch.gep29, align 8
  br label %ssl_mfl_code_to_length.exit22

ssl_mfl_code_to_length.exit22:                    ; preds = %switch.lookup27, %17, %14
  %.0 = phi i64 [ 16384, %14 ], [ 16384, %17 ], [ %switch.load30, %switch.lookup27 ]
  %21 = getelementptr inbounds nuw i8, ptr %0, i64 104
  %22 = load ptr, ptr %21, align 8, !tbaa !88
  %.not19 = icmp eq ptr %22, null
  br i1 %.not19, label %ssl_mfl_code_to_length.exit, label %23

23:                                               ; preds = %ssl_mfl_code_to_length.exit22
  %24 = load i8, ptr %22, align 8, !tbaa !210
  %switch.tableidx32 = add i8 %24, -1
  %25 = icmp ult i8 %switch.tableidx32, 4
  br i1 %25, label %switch.lookup31, label %ssl_mfl_code_to_length.exit24

switch.lookup31:                                  ; preds = %23
  %26 = zext nneg i8 %switch.tableidx32 to i64
  %switch.gep33 = getelementptr inbounds nuw [4 x i64], ptr @switch.table.mbedtls_ssl_get_max_in_record_payload.31, i64 0, i64 %26
  %switch.load34 = load i64, ptr %switch.gep33, align 8
  br label %ssl_mfl_code_to_length.exit24

ssl_mfl_code_to_length.exit24:                    ; preds = %23, %switch.lookup31
  %.0.i23 = phi i64 [ %switch.load34, %switch.lookup31 ], [ 16384, %23 ]
  %spec.select20 = tail call i64 @llvm.umin.i64(i64 %.0, i64 %.0.i23)
  br label %ssl_mfl_code_to_length.exit

switch.lookup:                                    ; preds = %10
  %27 = zext nneg i8 %switch.tableidx to i64
  %switch.gep = getelementptr inbounds nuw [4 x i64], ptr @switch.table.mbedtls_ssl_get_max_in_record_payload.31, i64 0, i64 %27
  %switch.load = load i64, ptr %switch.gep, align 8
  br label %ssl_mfl_code_to_length.exit

ssl_mfl_code_to_length.exit:                      ; preds = %10, %switch.lookup, %ssl_mfl_code_to_length.exit24, %ssl_mfl_code_to_length.exit22
  %.014 = phi i64 [ %.0, %ssl_mfl_code_to_length.exit22 ], [ %spec.select20, %ssl_mfl_code_to_length.exit24 ], [ %switch.load, %switch.lookup ], [ 16384, %10 ]
  ret i64 %.014
}